target datalayout = "e-m:e-p270:32:32-p271:32:32-p272:64:64-i64:64-f80:128-n8:16:32:64-S128"
target triple = "x86_64-pc-linux-gnu"

@num = dso_local global [1000 x i32] zeroinitializer, align 16
@.str = private unnamed_addr constant [3 x i8] c"%d\00", align 1
@.str.1 = private unnamed_addr constant [3 x i8] c"%s\00", align 1
@str = common dso_local global [1000 x i8] zeroinitializer, align 16
@s = common dso_local global [1000 x [1000 x i8]] zeroinitializer, align 16
@.str.2 = private unnamed_addr constant [4 x i8] c"%d\0A\00", align 1
@.str.3 = private unnamed_addr constant [4 x i8] c"%s\0A\00", align 1
@.str.4 = private unnamed_addr constant [4 x i8] c"NO\0A\00", align 1

; Function Attrs: noinline nounwind uwtable
define dso_local void @main() #0 {
  %1 = alloca i32, align 4
  %2 = alloca i32, align 4
  %3 = alloca i32, align 4
  %4 = alloca i32, align 4
  %5 = alloca i32, align 4
  %6 = alloca i32, align 4
  %7 = alloca i32, align 4
  %8 = alloca i32, align 4
  %9 = alloca i8*, align 8
  %10 = alloca i32, align 4
  %11 = call i32 (i8*, ...) @__isoc99_scanf(i8* getelementptr inbounds ([3 x i8], [3 x i8]* @.str, i64 0, i64 0), i32* %1)
  %12 = call i32 (i8*, ...) @__isoc99_scanf(i8* getelementptr inbounds ([3 x i8], [3 x i8]* @.str.1, i64 0, i64 0), i8* getelementptr inbounds ([1000 x i8], [1000 x i8]* @str, i64 0, i64 0))
  %13 = call i64 @strlen(i8* getelementptr inbounds ([1000 x i8], [1000 x i8]* @str, i64 0, i64 0)) #3
  %14 = trunc i64 %13 to i32
  store i32 %14, i32* %4, align 4
  store i32 0, i32* %5, align 4
  store i32 0, i32* %2, align 4
  br label %15

15:                                               ; preds = %111, %0
  %16 = load i32, i32* %2, align 4
  %17 = load i32, i32* %4, align 4
  %18 = icmp slt i32 %16, %17
  br i1 %18, label %19, label %114

19:                                               ; preds = %15
  %20 = load i32, i32* %4, align 4
  %21 = load i32, i32* %2, align 4
  %22 = sub nsw i32 %20, %21
  %23 = load i32, i32* %1, align 4
  %24 = icmp slt i32 %22, %23
  br i1 %24, label %25, label %26

25:                                               ; preds = %19
  br label %114

26:                                               ; preds = %19
  store i32 0, i32* %6, align 4
  store i32 0, i32* %7, align 4
  %27 = load i32, i32* %2, align 4
  store i32 %27, i32* %3, align 4
  br label %28

28:                                               ; preds = %46, %26
  %29 = load i32, i32* %3, align 4
  %30 = load i32, i32* %2, align 4
  %31 = load i32, i32* %1, align 4
  %32 = add nsw i32 %30, %31
  %33 = icmp slt i32 %29, %32
  br i1 %33, label %34, label %49

34:                                               ; preds = %28
  %35 = load i32, i32* %3, align 4
  %36 = sext i32 %35 to i64
  %37 = getelementptr inbounds [1000 x i8], [1000 x i8]* @str, i64 0, i64 %36
  %38 = load i8, i8* %37, align 1
  %39 = load i32, i32* %5, align 4
  %40 = sext i32 %39 to i64
  %41 = getelementptr inbounds [1000 x [1000 x i8]], [1000 x [1000 x i8]]* @s, i64 0, i64 %40
  %42 = load i32, i32* %7, align 4
  %43 = add nsw i32 %42, 1
  store i32 %43, i32* %7, align 4
  %44 = sext i32 %42 to i64
  %45 = getelementptr inbounds [1000 x i8], [1000 x i8]* %41, i64 0, i64 %44
  store i8 %38, i8* %45, align 1
  br label %46

46:                                               ; preds = %34
  %47 = load i32, i32* %3, align 4
  %48 = add nsw i32 %47, 1
  store i32 %48, i32* %3, align 4
  br label %28

49:                                               ; preds = %28
  %50 = load i32, i32* %5, align 4
  %51 = sext i32 %50 to i64
  %52 = getelementptr inbounds [1000 x [1000 x i8]], [1000 x [1000 x i8]]* @s, i64 0, i64 %51
  %53 = load i32, i32* %7, align 4
  %54 = sext i32 %53 to i64
  %55 = getelementptr inbounds [1000 x i8], [1000 x i8]* %52, i64 0, i64 %54
  store i8 0, i8* %55, align 1
  store i32 0, i32* %8, align 4
  br label %56

56:                                               ; preds = %73, %49
  %57 = load i32, i32* %8, align 4
  %58 = load i32, i32* %5, align 4
  %59 = icmp slt i32 %57, %58
  br i1 %59, label %60, label %76

60:                                               ; preds = %56
  %61 = load i32, i32* %8, align 4
  %62 = sext i32 %61 to i64
  %63 = getelementptr inbounds [1000 x [1000 x i8]], [1000 x [1000 x i8]]* @s, i64 0, i64 %62
  %64 = getelementptr inbounds [1000 x i8], [1000 x i8]* %63, i64 0, i64 0
  %65 = load i32, i32* %5, align 4
  %66 = sext i32 %65 to i64
  %67 = getelementptr inbounds [1000 x [1000 x i8]], [1000 x [1000 x i8]]* @s, i64 0, i64 %66
  %68 = getelementptr inbounds [1000 x i8], [1000 x i8]* %67, i64 0, i64 0
  %69 = call i32 @strcmp(i8* %64, i8* %68) #3
  %70 = icmp eq i32 %69, 0
  br i1 %70, label %71, label %72

71:                                               ; preds = %60
  store i32 1, i32* %6, align 4
  br label %76

72:                                               ; preds = %60
  br label %73

73:                                               ; preds = %72
  %74 = load i32, i32* %8, align 4
  %75 = add nsw i32 %74, 1
  store i32 %75, i32* %8, align 4
  br label %56

76:                                               ; preds = %71, %56
  %77 = load i32, i32* %6, align 4
  %78 = icmp eq i32 %77, 1
  br i1 %78, label %79, label %80

79:                                               ; preds = %76
  br label %111

80:                                               ; preds = %76
  %81 = load i32, i32* %5, align 4
  %82 = sext i32 %81 to i64
  %83 = getelementptr inbounds [1000 x [1000 x i8]], [1000 x [1000 x i8]]* @s, i64 0, i64 %82
  %84 = getelementptr inbounds [1000 x i8], [1000 x i8]* %83, i64 0, i64 0
  %85 = call i8* @strstr(i8* getelementptr inbounds ([1000 x i8], [1000 x i8]* @str, i64 0, i64 0), i8* %84) #3
  store i8* %85, i8** %9, align 8
  %86 = load i8*, i8** %9, align 8
  %87 = icmp ne i8* %86, null
  br i1 %87, label %89, label %88

88:                                               ; preds = %80
  br label %111

89:                                               ; preds = %80
  br label %90

90:                                               ; preds = %93, %89
  %91 = load i8*, i8** %9, align 8
  %92 = icmp ne i8* %91, null
  br i1 %92, label %93, label %107

93:                                               ; preds = %90
  %94 = load i8*, i8** %9, align 8
  %95 = getelementptr inbounds i8, i8* %94, i64 1
  store i8* %95, i8** %9, align 8
  %96 = load i8*, i8** %9, align 8
  %97 = load i32, i32* %5, align 4
  %98 = sext i32 %97 to i64
  %99 = getelementptr inbounds [1000 x [1000 x i8]], [1000 x [1000 x i8]]* @s, i64 0, i64 %98
  %100 = getelementptr inbounds [1000 x i8], [1000 x i8]* %99, i64 0, i64 0
  %101 = call i8* @strstr(i8* %96, i8* %100) #3
  store i8* %101, i8** %9, align 8
  %102 = load i32, i32* %5, align 4
  %103 = sext i32 %102 to i64
  %104 = getelementptr inbounds [1000 x i32], [1000 x i32]* @num, i64 0, i64 %103
  %105 = load i32, i32* %104, align 4
  %106 = add nsw i32 %105, 1
  store i32 %106, i32* %104, align 4
  br label %90

107:                                              ; preds = %90
  br label %108

108:                                              ; preds = %107
  %109 = load i32, i32* %5, align 4
  %110 = add nsw i32 %109, 1
  store i32 %110, i32* %5, align 4
  br label %111

111:                                              ; preds = %108, %88, %79
  %112 = load i32, i32* %2, align 4
  %113 = add nsw i32 %112, 1
  store i32 %113, i32* %2, align 4
  br label %15

114:                                              ; preds = %25, %15
  store i32 0, i32* %10, align 4
  store i32 0, i32* %2, align 4
  br label %115

115:                                              ; preds = %133, %114
  %116 = load i32, i32* %2, align 4
  %117 = load i32, i32* %4, align 4
  %118 = add nsw i32 %117, 2
  %119 = icmp slt i32 %116, %118
  br i1 %119, label %120, label %136

120:                                              ; preds = %115
  %121 = load i32, i32* %2, align 4
  %122 = sext i32 %121 to i64
  %123 = getelementptr inbounds [1000 x i32], [1000 x i32]* @num, i64 0, i64 %122
  %124 = load i32, i32* %123, align 4
  %125 = load i32, i32* %10, align 4
  %126 = icmp sgt i32 %124, %125
  br i1 %126, label %127, label %132

127:                                              ; preds = %120
  %128 = load i32, i32* %2, align 4
  %129 = sext i32 %128 to i64
  %130 = getelementptr inbounds [1000 x i32], [1000 x i32]* @num, i64 0, i64 %129
  %131 = load i32, i32* %130, align 4
  store i32 %131, i32* %10, align 4
  br label %132

132:                                              ; preds = %127, %120
  br label %133

133:                                              ; preds = %132
  %134 = load i32, i32* %2, align 4
  %135 = add nsw i32 %134, 1
  store i32 %135, i32* %2, align 4
  br label %115

136:                                              ; preds = %115
  %137 = load i32, i32* %10, align 4
  %138 = icmp sgt i32 %137, 1
  br i1 %138, label %139, label %165

139:                                              ; preds = %136
  %140 = load i32, i32* %10, align 4
  %141 = call i32 (i8*, ...) @printf(i8* getelementptr inbounds ([4 x i8], [4 x i8]* @.str.2, i64 0, i64 0), i32 %140)
  store i32 0, i32* %2, align 4
  br label %142

142:                                              ; preds = %161, %139
  %143 = load i32, i32* %2, align 4
  %144 = load i32, i32* %4, align 4
  %145 = add nsw i32 %144, 2
  %146 = icmp slt i32 %143, %145
  br i1 %146, label %147, label %164

147:                                              ; preds = %142
  %148 = load i32, i32* %2, align 4
  %149 = sext i32 %148 to i64
  %150 = getelementptr inbounds [1000 x i32], [1000 x i32]* @num, i64 0, i64 %149
  %151 = load i32, i32* %150, align 4
  %152 = load i32, i32* %10, align 4
  %153 = icmp eq i32 %151, %152
  br i1 %153, label %154, label %160

154:                                              ; preds = %147
  %155 = load i32, i32* %2, align 4
  %156 = sext i32 %155 to i64
  %157 = getelementptr inbounds [1000 x [1000 x i8]], [1000 x [1000 x i8]]* @s, i64 0, i64 %156
  %158 = getelementptr inbounds [1000 x i8], [1000 x i8]* %157, i64 0, i64 0
  %159 = call i32 (i8*, ...) @printf(i8* getelementptr inbounds ([4 x i8], [4 x i8]* @.str.3, i64 0, i64 0), i8* %158)
  br label %160

160:                                              ; preds = %154, %147
  br label %161

161:                                              ; preds = %160
  %162 = load i32, i32* %2, align 4
  %163 = add nsw i32 %162, 1
  store i32 %163, i32* %2, align 4
  br label %142

164:                                              ; preds = %142
  br label %167

165:                                              ; preds = %136
  %166 = call i32 (i8*, ...) @printf(i8* getelementptr inbounds ([4 x i8], [4 x i8]* @.str.4, i64 0, i64 0))
  br label %167

167:                                              ; preds = %165, %164
  ret void
}